target datalayout = "e-m:e-p270:32:32-p271:32:32-p272:64:64-i64:64-i128:128-f80:128-n8:16:32:64-S128"
target triple = "x86_64-pc-linux-gnu"

%struct.Aig_Man_t_ = type { ptr, ptr, ptr, ptr, ptr, ptr, ptr, %struct.Aig_Obj_t_, i32, i32, i32, i32, i32, i32, [7 x i32], i32, ptr, i32, ptr, i32, ptr, i32, i32, i32, ptr, i32, i32, i32, i32, i32, ptr, ptr, i32, ptr, ptr, i32, ptr, ptr, i32, i32, i32, ptr, ptr, ptr, ptr, ptr, ptr, ptr, ptr, ptr, ptr, ptr, ptr, ptr, ptr, i32, ptr, ptr, ptr, ptr, i32, i64, i64, i64, ptr, ptr }
%struct.Aig_Obj_t_ = type { %union.anon, ptr, ptr, i64, i32, i32, %union.anon.0 }
%union.anon = type { ptr }
%union.anon.0 = type { ptr }

; Function Attrs: nounwind uwtable
define internal i32 @Aig_IsComplement(ptr noundef %0) #0 {
  %2 = alloca ptr, align 8
  store ptr %0, ptr %2, align 8
  %3 = load ptr, ptr %2, align 8
  %4 = ptrtoint ptr %3 to i64
  %5 = and i64 %4, 1
  %6 = trunc i64 %5 to i32
  ret i32 %6
}

; Function Attrs: nounwind uwtable
define internal i32 @Aig_ObjFaninC1(ptr noundef %0) #0 {
  %2 = alloca ptr, align 8
  store ptr %0, ptr %2, align 8
  %3 = load ptr, ptr %2, align 8
  %4 = getelementptr inbounds %struct.Aig_Obj_t_, ptr %3, i32 0, i32 2
  %5 = load ptr, ptr %4, align 8
  %6 = call i32 @Aig_IsComplement(ptr noundef %5)
  ret i32 %6
}

; Function Attrs: nounwind uwtable
define internal i32 @Aig_ObjFaninC0(ptr noundef %0) #0 {
  %2 = alloca ptr, align 8
  store ptr %0, ptr %2, align 8
  %3 = load ptr, ptr %2, align 8
  %4 = getelementptr inbounds %struct.Aig_Obj_t_, ptr %3, i32 0, i32 1
  %5 = load ptr, ptr %4, align 8
  %6 = call i32 @Aig_IsComplement(ptr noundef %5)
  ret i32 %6
}

; Function Attrs: nounwind uwtable
define internal ptr @Aig_ObjGetRepr(ptr noundef %0, ptr noundef %1) #0 {
  %3 = alloca ptr, align 8
  %4 = alloca ptr, align 8
  %5 = alloca ptr, align 8
  %6 = alloca ptr, align 8
  store ptr %0, ptr %4, align 8
  store ptr %1, ptr %5, align 8
  %7 = load ptr, ptr %4, align 8
  %8 = load ptr, ptr %5, align 8
  %9 = call ptr @Aig_ObjFindRepr(ptr noundef %7, ptr noundef %8)
  store ptr %9, ptr %6, align 8
  %10 = icmp ne ptr %9, null
  br i1 %10, label %11, label %29

11:                                               ; preds = %2
  %12 = load ptr, ptr %6, align 8
  %13 = getelementptr inbounds %struct.Aig_Obj_t_, ptr %12, i32 0, i32 6
  %14 = load ptr, ptr %13, align 8
  %15 = load ptr, ptr %5, align 8
  %16 = getelementptr inbounds %struct.Aig_Obj_t_, ptr %15, i32 0, i32 3
  %17 = load i64, ptr %16, align 8
  %18 = lshr i64 %17, 3
  %19 = and i64 %18, 1
  %20 = trunc i64 %19 to i32
  %21 = load ptr, ptr %6, align 8
  %22 = getelementptr inbounds %struct.Aig_Obj_t_, ptr %21, i32 0, i32 3
  %23 = load i64, ptr %22, align 8
  %24 = lshr i64 %23, 3
  %25 = and i64 %24, 1
  %26 = trunc i64 %25 to i32
  %27 = xor i32 %20, %26
  %28 = call ptr @Aig_NotCond(ptr noundef %14, i32 noundef %27)
  store ptr %28, ptr %3, align 8
  br label %33

29:                                               ; preds = %2
  %30 = load ptr, ptr %5, align 8
  %31 = getelementptr inbounds %struct.Aig_Obj_t_, ptr %30, i32 0, i32 6
  %32 = load ptr, ptr %31, align 8
  store ptr %32, ptr %3, align 8
  br label %33

33:                                               ; preds = %29, %11
  %34 = load ptr, ptr %3, align 8
  ret ptr %34
}

; Function Attrs: nounwind uwtable
define internal ptr @Aig_Regular(ptr noundef %0) #0 {
  %2 = alloca ptr, align 8
  store ptr %0, ptr %2, align 8
  %3 = load ptr, ptr %2, align 8
  %4 = ptrtoint ptr %3 to i64
  %5 = and i64 %4, -2
  %6 = inttoptr i64 %5 to ptr
  ret ptr %6
}

; Function Attrs: nounwind uwtable
define internal ptr @Aig_ObjChild1Repr(ptr noundef %0, ptr noundef %1) #0 {
  %3 = alloca ptr, align 8
  %4 = alloca ptr, align 8
  store ptr %0, ptr %3, align 8
  store ptr %1, ptr %4, align 8
  %5 = load ptr, ptr %3, align 8
  %6 = load ptr, ptr %4, align 8
  %7 = call ptr @Aig_ObjFanin1(ptr noundef %6)
  %8 = call ptr @Aig_ObjGetRepr(ptr noundef %5, ptr noundef %7)
  %9 = load ptr, ptr %4, align 8
  %10 = call i32 @Aig_ObjFaninC1(ptr noundef %9)
  %11 = call ptr @Aig_NotCond(ptr noundef %8, i32 noundef %10)
  ret ptr %11
}

; Function Attrs: nounwind uwtable
define internal ptr @Aig_ObjChild0Repr(ptr noundef %0, ptr noundef %1) #0 {
  %3 = alloca ptr, align 8
  %4 = alloca ptr, align 8
  store ptr %0, ptr %3, align 8
  store ptr %1, ptr %4, align 8
  %5 = load ptr, ptr %3, align 8
  %6 = load ptr, ptr %4, align 8
  %7 = call ptr @Aig_ObjFanin0(ptr noundef %6)
  %8 = call ptr @Aig_ObjGetRepr(ptr noundef %5, ptr noundef %7)
  %9 = load ptr, ptr %4, align 8
  %10 = call i32 @Aig_ObjFaninC0(ptr noundef %9)
  %11 = call ptr @Aig_NotCond(ptr noundef %8, i32 noundef %10)
  ret ptr %11
}

; Function Attrs: nounwind uwtable
define internal ptr @Aig_ObjFanin1(ptr noundef %0) #0 {
  %2 = alloca ptr, align 8
  store ptr %0, ptr %2, align 8
  %3 = load ptr, ptr %2, align 8
  %4 = getelementptr inbounds %struct.Aig_Obj_t_, ptr %3, i32 0, i32 2
  %5 = load ptr, ptr %4, align 8
  %6 = call ptr @Aig_Regular(ptr noundef %5)
  ret ptr %6
}

; Function Attrs: nounwind uwtable
define internal ptr @Aig_ObjFanin0(ptr noundef %0) #0 {
  %2 = alloca ptr, align 8
  store ptr %0, ptr %2, align 8
  %3 = load ptr, ptr %2, align 8
  %4 = getelementptr inbounds %struct.Aig_Obj_t_, ptr %3, i32 0, i32 1
  %5 = load ptr, ptr %4, align 8
  %6 = call ptr @Aig_Regular(ptr noundef %5)
  ret ptr %6
}

; Function Attrs: nounwind uwtable
define internal ptr @Aig_NotCond(ptr noundef %0, i32 noundef %1) #0 {
  %3 = alloca ptr, align 8
  %4 = alloca i32, align 4
  store ptr %0, ptr %3, align 8
  store i32 %1, ptr %4, align 4
  %5 = load ptr, ptr %3, align 8
  %6 = ptrtoint ptr %5 to i64
  %7 = load i32, ptr %4, align 4
  %8 = sext i32 %7 to i64
  %9 = xor i64 %6, %8
  %10 = inttoptr i64 %9 to ptr
  ret ptr %10
}

; Function Attrs: nounwind uwtable
define internal ptr @Aig_ObjFindRepr(ptr noundef %0, ptr noundef %1) #0 {
  %3 = alloca ptr, align 8
  %4 = alloca ptr, align 8
  store ptr %0, ptr %3, align 8
  store ptr %1, ptr %4, align 8
  %5 = load ptr, ptr %3, align 8
  %6 = getelementptr inbounds %struct.Aig_Man_t_, ptr %5, i32 0, i32 31
  %7 = load ptr, ptr %6, align 8
  %8 = load ptr, ptr %4, align 8
  %9 = getelementptr inbounds %struct.Aig_Obj_t_, ptr %8, i32 0, i32 5
  %10 = load i32, ptr %9, align 4
  %11 = sext i32 %10 to i64
  %12 = getelementptr inbounds ptr, ptr %7, i64 %11
  %13 = load ptr, ptr %12, align 8
  ret ptr %13
}

; Function Attrs: nounwind uwtable
define ptr @Aig_ManDupRepr_rec(ptr noundef %0, ptr noundef %1, ptr noundef %2) #0 {
  %4 = alloca ptr, align 8
  %5 = alloca ptr, align 8
  %6 = alloca ptr, align 8
  %7 = alloca ptr, align 8
  %8 = alloca ptr, align 8
  store ptr %0, ptr %5, align 8
  store ptr %1, ptr %6, align 8
  store ptr %2, ptr %7, align 8
  %9 = load ptr, ptr %7, align 8
  %10 = getelementptr inbounds %struct.Aig_Obj_t_, ptr %9, i32 0, i32 6
  %11 = load ptr, ptr %10, align 8
  %12 = icmp ne ptr %11, null
  br i1 %12, label %13, label %17

13:                                               ; preds = %3
  %14 = load ptr, ptr %7, align 8
  %15 = getelementptr inbounds %struct.Aig_Obj_t_, ptr %14, i32 0, i32 6
  %16 = load ptr, ptr %15, align 8
  store ptr %16, ptr %4, align 8
  br label %67

17:                                               ; preds = %3
  %18 = load ptr, ptr %6, align 8
  %19 = load ptr, ptr %7, align 8
  %20 = call ptr @Aig_ObjFindRepr(ptr noundef %18, ptr noundef %19)
  store ptr %20, ptr %8, align 8
  %21 = icmp ne ptr %20, null
  br i1 %21, label %22, label %46

22:                                               ; preds = %17
  %23 = load ptr, ptr %5, align 8
  %24 = load ptr, ptr %6, align 8
  %25 = load ptr, ptr %8, align 8
  %26 = call ptr @Aig_ManDupRepr_rec(ptr noundef %23, ptr noundef %24, ptr noundef %25)
  %27 = load ptr, ptr %8, align 8
  %28 = getelementptr inbounds %struct.Aig_Obj_t_, ptr %27, i32 0, i32 6
  %29 = load ptr, ptr %28, align 8
  %30 = load ptr, ptr %8, align 8
  %31 = getelementptr inbounds %struct.Aig_Obj_t_, ptr %30, i32 0, i32 3
  %32 = load i64, ptr %31, align 8
  %33 = lshr i64 %32, 3
  %34 = and i64 %33, 1
  %35 = trunc i64 %34 to i32
  %36 = load ptr, ptr %7, align 8
  %37 = getelementptr inbounds %struct.Aig_Obj_t_, ptr %36, i32 0, i32 3
  %38 = load i64, ptr %37, align 8
  %39 = lshr i64 %38, 3
  %40 = and i64 %39, 1
  %41 = trunc i64 %40 to i32
  %42 = xor i32 %35, %41
  %43 = call ptr @Aig_NotCond(ptr noundef %29, i32 noundef %42)
  %44 = load ptr, ptr %7, align 8
  %45 = getelementptr inbounds %struct.Aig_Obj_t_, ptr %44, i32 0, i32 6
  store ptr %43, ptr %45, align 8
  store ptr %43, ptr %4, align 8
  br label %67

46:                                               ; preds = %17
  %47 = load ptr, ptr %5, align 8
  %48 = load ptr, ptr %6, align 8
  %49 = load ptr, ptr %7, align 8
  %50 = call ptr @Aig_ObjFanin0(ptr noundef %49)
  %51 = call ptr @Aig_ManDupRepr_rec(ptr noundef %47, ptr noundef %48, ptr noundef %50)
  %52 = load ptr, ptr %5, align 8
  %53 = load ptr, ptr %6, align 8
  %54 = load ptr, ptr %7, align 8
  %55 = call ptr @Aig_ObjFanin1(ptr noundef %54)
  %56 = call ptr @Aig_ManDupRepr_rec(ptr noundef %52, ptr noundef %53, ptr noundef %55)
  %57 = load ptr, ptr %5, align 8
  %58 = load ptr, ptr %6, align 8
  %59 = load ptr, ptr %7, align 8
  %60 = call ptr @Aig_ObjChild0Repr(ptr noundef %58, ptr noundef %59)
  %61 = load ptr, ptr %6, align 8
  %62 = load ptr, ptr %7, align 8
  %63 = call ptr @Aig_ObjChild1Repr(ptr noundef %61, ptr noundef %62)
  %64 = call ptr @Aig_And(ptr noundef %57, ptr noundef %60, ptr noundef %63)
  %65 = load ptr, ptr %7, align 8
  %66 = getelementptr inbounds %struct.Aig_Obj_t_, ptr %65, i32 0, i32 6
  store ptr %64, ptr %66, align 8
  store ptr %64, ptr %4, align 8
  br label %67

67:                                               ; preds = %46, %22, %13
  %68 = load ptr, ptr %4, align 8
  ret ptr %68
}