; Function Attrs: nounwind uwtable
define ptr @Aig_ManDupRepr_rec(ptr noundef %0, ptr noundef %1, ptr noundef captures(none) %2) local_unnamed_addr #6 {
  %4 = getelementptr inbounds nuw i8, ptr %2, i64 40
  %5 = load ptr, ptr %4, align 8
  %.not = icmp eq ptr %5, null
  br i1 %.not, label %6, label %common.ret

6:                                                ; preds = %3
  %7 = getelementptr i8, ptr %1, i64 256
  %.val = load ptr, ptr %7, align 8
  %8 = getelementptr i8, ptr %2, i64 36
  %.val27 = load i32, ptr %8, align 4
  %9 = sext i32 %.val27 to i64
  %10 = getelementptr inbounds ptr, ptr %.val, i64 %9
  %11 = load ptr, ptr %10, align 8
  %.not26 = icmp eq ptr %11, null
  br i1 %.not26, label %26, label %12

common.ret.sink.split:                            ; preds = %12, %Aig_ObjChild1Repr.exit
  %.sink = phi ptr [ %89, %Aig_ObjChild1Repr.exit ], [ %25, %12 ]
  store ptr %.sink, ptr %4, align 8
  br label %common.ret

common.ret:                                       ; preds = %common.ret.sink.split, %3
  %common.ret.op = phi ptr [ %5, %3 ], [ %.sink, %common.ret.sink.split ]
  ret ptr %common.ret.op

12:                                               ; preds = %6
  %13 = tail call ptr @Aig_ManDupRepr_rec(ptr noundef %0, ptr noundef nonnull %1, ptr noundef nonnull %11)
  %14 = getelementptr inbounds nuw i8, ptr %11, i64 40
  %15 = load ptr, ptr %14, align 8
  %16 = getelementptr inbounds nuw i8, ptr %11, i64 24
  %17 = load i64, ptr %16, align 8
  %18 = getelementptr inbounds nuw i8, ptr %2, i64 24
  %19 = load i64, ptr %18, align 8
  %20 = xor i64 %19, %17
  %21 = lshr i64 %20, 3
  %22 = and i64 %21, 1
  %23 = ptrtoint ptr %15 to i64
  %24 = xor i64 %22, %23
  %25 = inttoptr i64 %24 to ptr
  br label %common.ret.sink.split

26:                                               ; preds = %6
  %27 = getelementptr i8, ptr %2, i64 8
  %.val28 = load ptr, ptr %27, align 8
  %28 = ptrtoint ptr %.val28 to i64
  %29 = and i64 %28, -2
  %30 = inttoptr i64 %29 to ptr
  %31 = tail call ptr @Aig_ManDupRepr_rec(ptr noundef %0, ptr noundef nonnull %1, ptr noundef %30)
  %32 = getelementptr i8, ptr %2, i64 16
  %.val29 = load ptr, ptr %32, align 8
  %33 = ptrtoint ptr %.val29 to i64
  %34 = and i64 %33, -2
  %35 = inttoptr i64 %34 to ptr
  %36 = tail call ptr @Aig_ManDupRepr_rec(ptr noundef %0, ptr noundef nonnull %1, ptr noundef %35)
  %.val30 = load ptr, ptr %7, align 8
  %.val31 = load ptr, ptr %27, align 8
  %37 = ptrtoint ptr %.val31 to i64
  %38 = and i64 %37, -2
  %39 = inttoptr i64 %38 to ptr
  %40 = getelementptr i8, ptr %39, i64 36
  %.val8.i.i = load i32, ptr %40, align 4
  %41 = sext i32 %.val8.i.i to i64
  %42 = getelementptr inbounds ptr, ptr %.val30, i64 %41
  %43 = load ptr, ptr %42, align 8
  %.not.i.i = icmp eq ptr %43, null
  br i1 %.not.i.i, label %56, label %44

44:                                               ; preds = %26
  %45 = getelementptr inbounds nuw i8, ptr %43, i64 40
  %46 = load ptr, ptr %45, align 8
  %47 = getelementptr inbounds nuw i8, ptr %39, i64 24
  %48 = load i64, ptr %47, align 8
  %49 = getelementptr inbounds nuw i8, ptr %43, i64 24
  %50 = load i64, ptr %49, align 8
  %51 = xor i64 %50, %48
  %52 = lshr i64 %51, 3
  %53 = and i64 %52, 1
  %54 = ptrtoint ptr %46 to i64
  %55 = xor i64 %53, %54
  br label %Aig_ObjChild0Repr.exit

56:                                               ; preds = %26
  %57 = getelementptr inbounds nuw i8, ptr %39, i64 40
  %58 = load ptr, ptr %57, align 8
  %59 = ptrtoint ptr %58 to i64
  br label %Aig_ObjChild0Repr.exit

Aig_ObjChild0Repr.exit:                           ; preds = %44, %56
  %.0.i.i = phi i64 [ %55, %44 ], [ %59, %56 ]
  %60 = and i64 %37, 1
  %61 = xor i64 %.0.i.i, %60
  %62 = inttoptr i64 %61 to ptr
  %.val33 = load ptr, ptr %32, align 8
  %63 = ptrtoint ptr %.val33 to i64
  %64 = and i64 %63, -2
  %65 = inttoptr i64 %64 to ptr
  %66 = getelementptr i8, ptr %65, i64 36
  %.val8.i.i34 = load i32, ptr %66, align 4
  %67 = sext i32 %.val8.i.i34 to i64
  %68 = getelementptr inbounds ptr, ptr %.val30, i64 %67
  %69 = load ptr, ptr %68, align 8
  %.not.i.i35 = icmp eq ptr %69, null
  br i1 %.not.i.i35, label %82, label %70

70:                                               ; preds = %Aig_ObjChild0Repr.exit
  %71 = getelementptr inbounds nuw i8, ptr %69, i64 40
  %72 = load ptr, ptr %71, align 8
  %73 = getelementptr inbounds nuw i8, ptr %65, i64 24
  %74 = load i64, ptr %73, align 8
  %75 = getelementptr inbounds nuw i8, ptr %69, i64 24
  %76 = load i64, ptr %75, align 8
  %77 = xor i64 %76, %74
  %78 = lshr i64 %77, 3
  %79 = and i64 %78, 1
  %80 = ptrtoint ptr %72 to i64
  %81 = xor i64 %79, %80
  br label %Aig_ObjChild1Repr.exit

82:                                               ; preds = %Aig_ObjChild0Repr.exit
  %83 = getelementptr inbounds nuw i8, ptr %65, i64 40
  %84 = load ptr, ptr %83, align 8
  %85 = ptrtoint ptr %84 to i64
  br label %Aig_ObjChild1Repr.exit

Aig_ObjChild1Repr.exit:                           ; preds = %70, %82
  %.0.i.i36 = phi i64 [ %81, %70 ], [ %85, %82 ]
  %86 = and i64 %63, 1
  %87 = xor i64 %.0.i.i36, %86
  %88 = inttoptr i64 %87 to ptr
  %89 = tail call ptr @Aig_And(ptr noundef %0, ptr noundef %62, ptr noundef %88) #18
  br label %common.ret.sink.split
}